; Function Attrs: nounwind uwtable
define ptr @l_Int_OfNat_ofDenoteAsIntExpr_x3f___lambda__7(ptr noundef %0, ptr noundef %1, ptr noundef %2, ptr noundef %3, ptr noundef %4, ptr noundef %5, ptr noundef %6, ptr noundef %7, ptr noundef %8, ptr noundef %9, ptr noundef %10) #0 {
  %12 = load ptr, ptr @l_Int_OfNat_toIntLe_x3f___closed__2, align 8, !tbaa !4
  %13 = tail call ptr @l_Lean_Expr_cleanupAnnotations(ptr noundef %0) #4
  %14 = load ptr, ptr @l_Int_OfNat_ofDenoteAsIntExpr_x3f___lambda__7___closed__2, align 8, !tbaa !4
  %15 = tail call zeroext i8 @l_Lean_Expr_isConstOf(ptr noundef %13, ptr noundef %14) #4
  %16 = ptrtoint ptr %13 to i64
  %17 = and i64 %16, 1
  %.not = icmp eq i64 %17, 0
  br i1 %.not, label %18, label %lean_dec.exit30

18:                                               ; preds = %11
  %19 = load i32, ptr %13, align 4, !tbaa !8
  %20 = icmp sgt i32 %19, 1
  br i1 %20, label %21, label %23, !prof !11

21:                                               ; preds = %18
  %22 = add nsw i32 %19, -1
  store i32 %22, ptr %13, align 4, !tbaa !8
  br label %lean_dec.exit30

23:                                               ; preds = %18
  %.not.i = icmp eq i32 %19, 0
  br i1 %.not.i, label %lean_dec.exit30, label %24

24:                                               ; preds = %23
  tail call void @lean_dec_ref_cold(ptr noundef nonnull %13) #4
  br label %lean_dec.exit30

lean_dec.exit30:                                  ; preds = %24, %23, %21, %11
  %25 = icmp eq i8 %15, 0
  br i1 %25, label %26, label %37

26:                                               ; preds = %lean_dec.exit30
  %27 = ptrtoint ptr %1 to i64
  %28 = and i64 %27, 1
  %.not33 = icmp eq i64 %28, 0
  br i1 %.not33, label %29, label %lean_dec.exit

29:                                               ; preds = %26
  %30 = load i32, ptr %1, align 4, !tbaa !8
  %31 = icmp sgt i32 %30, 1
  br i1 %31, label %32, label %34, !prof !11

32:                                               ; preds = %29
  %33 = add nsw i32 %30, -1
  store i32 %33, ptr %1, align 4, !tbaa !8
  br label %lean_dec.exit

34:                                               ; preds = %29
  %.not.i31 = icmp eq i32 %30, 0
  br i1 %.not.i31, label %lean_dec.exit, label %35

35:                                               ; preds = %34
  tail call void @lean_dec_ref_cold(ptr noundef nonnull %1) #4
  br label %lean_dec.exit

lean_dec.exit:                                    ; preds = %35, %34, %32, %26
  %36 = tail call ptr @lean_apply_10(ptr noundef %12, ptr noundef nonnull inttoptr (i64 1 to ptr), ptr noundef %2, ptr noundef %3, ptr noundef %4, ptr noundef %5, ptr noundef %6, ptr noundef %7, ptr noundef %8, ptr noundef %9, ptr noundef %10) #4
  br label %39

37:                                               ; preds = %lean_dec.exit30
  %38 = tail call ptr @l_Int_OfNat_ofDenoteAsIntExpr_x3f___lambda__6(ptr noundef %1, ptr nonnull poison, ptr noundef %2, ptr noundef %3, ptr noundef %4, ptr noundef %5, ptr noundef %6, ptr noundef %7, ptr noundef %8, ptr noundef %9, ptr noundef %10)
  br label %39

39:                                               ; preds = %37, %lean_dec.exit
  %.0 = phi ptr [ %36, %lean_dec.exit ], [ %38, %37 ]
  ret ptr %.0
}